; Function Attrs: mustprogress uwtable
define hidden noundef zeroext i1 @_ZN6google8protobuf8internal10VerifyUTF8ENS0_20stringpiece_internal11StringPieceEPKc(ptr %0, i64 %1, ptr noundef %2) local_unnamed_addr #3 {
  %4 = trunc i64 %1 to i32
  %5 = tail call noundef zeroext i1 @_ZN6google8protobuf8internal23IsStructurallyValidUTF8EPKci(ptr noundef %0, i32 noundef %4)
  br i1 %5, label %7, label %6

6:                                                ; preds = %3
  tail call void @_ZN6google8protobuf8internal17PrintUTF8ErrorLogEPKcS3_b(ptr noundef %2, ptr noundef nonnull @.str.8, i1 noundef zeroext false)
  br label %7

7:                                                ; preds = %3, %6
  ret i1 %5
}